target datalayout = "e-m:e-p270:32:32-p271:32:32-p272:64:64-i64:64-i128:128-f80:128-n8:16:32:64-S128"
target triple = "x86_64-pc-linux-gnu"

%struct.re_pattern_buffer = type { ptr, i32, i32, i32, i32, i32, i32, i32, i32, i32, i32, i32, i32, i32, ptr, ptr, ptr, ptr, i32, i32, i32, i32, i64, i64, i32, ptr, ptr, [256 x i8], ptr, ptr, i64, i64, i64, ptr }

; Function Attrs: alwaysinline nounwind
define internal ptr @memcpy.inline(ptr noalias nonnull %0, ptr noalias nonnull %1, i64 %2) #7 {
  %4 = alloca ptr, align 8
  %5 = alloca ptr, align 8
  %6 = alloca i64, align 8
  store ptr %0, ptr %4, align 8, !tbaa !36
  store ptr %1, ptr %5, align 8, !tbaa !36
  store i64 %2, ptr %6, align 8, !tbaa !14
  %7 = load ptr, ptr %4, align 8, !tbaa !36
  %8 = load ptr, ptr %5, align 8, !tbaa !36
  %9 = load i64, ptr %6, align 8, !tbaa !14
  %10 = load ptr, ptr %4, align 8, !tbaa !36
  %11 = call i64 @llvm.objectsize.i64.p0(ptr %10, i1 false, i1 true, i1 false)
  %12 = call ptr @__memcpy_chk(ptr noundef %7, ptr noundef %8, i64 noundef %9, i64 noundef %11) #11
  ret ptr %12
}

; Function Attrs: nounwind sspstrong uwtable
define internal i32 @add_bytes(ptr noundef %0, ptr noundef %1, i64 noundef %2) #0 {
  %4 = alloca i32, align 4
  %5 = alloca ptr, align 8
  %6 = alloca ptr, align 8
  %7 = alloca i64, align 8
  %8 = alloca i32, align 4
  %9 = alloca ptr, align 8
  %10 = alloca i32, align 4
  store ptr %0, ptr %5, align 8, !tbaa !21
  store ptr %1, ptr %6, align 8, !tbaa !35
  store i64 %2, ptr %7, align 8, !tbaa !14
  br label %11

11:                                               ; preds = %3
  call void @llvm.lifetime.start.p0(i64 4, ptr %8) #11
  %12 = load ptr, ptr %5, align 8, !tbaa !21
  %13 = getelementptr inbounds nuw %struct.re_pattern_buffer, ptr %12, i32 0, i32 1
  %14 = load i32, ptr %13, align 8, !tbaa !55
  %15 = load i64, ptr %7, align 8, !tbaa !14
  %16 = trunc i64 %15 to i32
  %17 = add i32 %14, %16
  store i32 %17, ptr %8, align 4, !tbaa !7
  %18 = load ptr, ptr %5, align 8, !tbaa !21
  %19 = getelementptr inbounds nuw %struct.re_pattern_buffer, ptr %18, i32 0, i32 2
  %20 = load i32, ptr %19, align 4, !tbaa !41
  %21 = load i32, ptr %8, align 4, !tbaa !7
  %22 = icmp ult i32 %20, %21
  br i1 %22, label %23, label %57

23:                                               ; preds = %11
  br label %24

24:                                               ; preds = %23
  call void @llvm.lifetime.start.p0(i64 8, ptr %9) #11
  br label %25

25:                                               ; preds = %30, %24
  %26 = load ptr, ptr %5, align 8, !tbaa !21
  %27 = getelementptr inbounds nuw %struct.re_pattern_buffer, ptr %26, i32 0, i32 2
  %28 = load i32, ptr %27, align 4, !tbaa !41
  %29 = mul i32 %28, 2
  store i32 %29, ptr %27, align 4, !tbaa !41
  br label %30

30:                                               ; preds = %25
  %31 = load ptr, ptr %5, align 8, !tbaa !21
  %32 = getelementptr inbounds nuw %struct.re_pattern_buffer, ptr %31, i32 0, i32 2
  %33 = load i32, ptr %32, align 4, !tbaa !41
  %34 = load i32, ptr %8, align 4, !tbaa !7
  %35 = icmp ult i32 %33, %34
  br i1 %35, label %25, label %36, !llvm.loop !308

36:                                               ; preds = %30
  %37 = load ptr, ptr %5, align 8, !tbaa !21
  %38 = getelementptr inbounds nuw %struct.re_pattern_buffer, ptr %37, i32 0, i32 0
  %39 = load ptr, ptr %38, align 8, !tbaa !23
  %40 = load ptr, ptr %5, align 8, !tbaa !21
  %41 = getelementptr inbounds nuw %struct.re_pattern_buffer, ptr %40, i32 0, i32 2
  %42 = load i32, ptr %41, align 4, !tbaa !41
  %43 = zext i32 %42 to i64
  %44 = call ptr @realloc(ptr noundef %39, i64 noundef %43) #12
  store ptr %44, ptr %9, align 8, !tbaa !35
  %45 = load ptr, ptr %9, align 8, !tbaa !35
  %46 = icmp eq ptr %45, null
  br i1 %46, label %47, label %48

47:                                               ; preds = %36
  store i32 -5, ptr %4, align 4
  store i32 1, ptr %10, align 4
  br label %52

48:                                               ; preds = %36
  %49 = load ptr, ptr %9, align 8, !tbaa !35
  %50 = load ptr, ptr %5, align 8, !tbaa !21
  %51 = getelementptr inbounds nuw %struct.re_pattern_buffer, ptr %50, i32 0, i32 0
  store ptr %49, ptr %51, align 8, !tbaa !23
  store i32 0, ptr %10, align 4
  br label %52

52:                                               ; preds = %48, %47
  call void @llvm.lifetime.end.p0(i64 8, ptr %9) #11
  %53 = load i32, ptr %10, align 4
  switch i32 %53, label %79 [
    i32 0, label %54
  ]

54:                                               ; preds = %52
  br label %55

55:                                               ; preds = %54
  br label %56

56:                                               ; preds = %55
  br label %57

57:                                               ; preds = %56, %11
  %58 = load ptr, ptr %5, align 8, !tbaa !21
  %59 = getelementptr inbounds nuw %struct.re_pattern_buffer, ptr %58, i32 0, i32 0
  %60 = load ptr, ptr %59, align 8, !tbaa !23
  %61 = load ptr, ptr %5, align 8, !tbaa !21
  %62 = getelementptr inbounds nuw %struct.re_pattern_buffer, ptr %61, i32 0, i32 1
  %63 = load i32, ptr %62, align 8, !tbaa !55
  %64 = zext i32 %63 to i64
  %65 = getelementptr i8, ptr %60, i64 %64
  %66 = load ptr, ptr %6, align 8, !tbaa !35
  %67 = load i64, ptr %7, align 8, !tbaa !14
  %68 = call ptr @memcpy.inline(ptr noundef %65, ptr noundef %66, i64 noundef %67) #11
  %69 = load ptr, ptr %5, align 8, !tbaa !21
  %70 = getelementptr inbounds nuw %struct.re_pattern_buffer, ptr %69, i32 0, i32 1
  %71 = load i32, ptr %70, align 8, !tbaa !55
  %72 = load i32, ptr %8, align 4, !tbaa !7
  %73 = icmp ult i32 %71, %72
  br i1 %73, label %74, label %78

74:                                               ; preds = %57
  %75 = load i32, ptr %8, align 4, !tbaa !7
  %76 = load ptr, ptr %5, align 8, !tbaa !21
  %77 = getelementptr inbounds nuw %struct.re_pattern_buffer, ptr %76, i32 0, i32 1
  store i32 %75, ptr %77, align 8, !tbaa !55
  br label %78

78:                                               ; preds = %74, %57
  store i32 0, ptr %10, align 4
  br label %79

79:                                               ; preds = %78, %52
  call void @llvm.lifetime.end.p0(i64 4, ptr %8) #11
  %80 = load i32, ptr %10, align 4
  switch i32 %80, label %85 [
    i32 0, label %81
    i32 1, label %83
  ]

81:                                               ; preds = %79
  br label %82

82:                                               ; preds = %81
  store i32 0, ptr %4, align 4
  br label %83

83:                                               ; preds = %82, %79
  %84 = load i32, ptr %4, align 4
  ret i32 %84

85:                                               ; preds = %79
  unreachable
}