; Function Attrs: nounwind sspstrong uwtable
define internal fastcc range(i32 -5, 1) i32 @add_bytes(ptr noundef captures(none) %0, ptr noundef readonly captures(none) %1, i64 noundef %2) unnamed_addr #4 {
  %4 = getelementptr inbounds nuw i8, ptr %0, i64 8
  %5 = load i32, ptr %4, align 8, !tbaa !115
  %6 = trunc i64 %2 to i32
  %7 = add i32 %5, %6
  %8 = getelementptr inbounds nuw i8, ptr %0, i64 12
  %9 = load i32, ptr %8, align 4, !tbaa !37
  %10 = icmp ult i32 %9, %7
  br i1 %10, label %.preheader, label %._crit_edge

._crit_edge:                                      ; preds = %3
  %.pre = load ptr, ptr %0, align 8, !tbaa !17
  br label %19

.preheader:                                       ; preds = %3, %.preheader
  %11 = phi i32 [ %12, %.preheader ], [ %9, %3 ]
  %12 = shl i32 %11, 1
  %13 = icmp ult i32 %12, %7
  br i1 %13, label %.preheader, label %14, !llvm.loop !299

14:                                               ; preds = %.preheader
  store i32 %12, ptr %8, align 4, !tbaa !37
  %15 = load ptr, ptr %0, align 8, !tbaa !17
  %16 = zext i32 %12 to i64
  %17 = tail call ptr @realloc(ptr noundef %15, i64 noundef %16) #21
  %.not = icmp eq ptr %17, null
  br i1 %.not, label %.critedge, label %18

18:                                               ; preds = %14
  store ptr %17, ptr %0, align 8, !tbaa !17
  %.pre31 = load i32, ptr %4, align 8, !tbaa !115
  br label %19

19:                                               ; preds = %._crit_edge, %18
  %20 = phi i32 [ %5, %._crit_edge ], [ %.pre31, %18 ]
  %21 = phi ptr [ %.pre, %._crit_edge ], [ %17, %18 ]
  %22 = zext i32 %20 to i64
  %23 = getelementptr i8, ptr %21, i64 %22
  tail call void @llvm.memcpy.p0.p0.i64(ptr noundef nonnull align 1 %23, ptr noundef nonnull align 1 %1, i64 noundef %2, i1 noundef false) #20
  %24 = load i32, ptr %4, align 8, !tbaa !115
  %25 = icmp ult i32 %24, %7
  br i1 %25, label %26, label %.critedge

26:                                               ; preds = %19
  store i32 %7, ptr %4, align 8, !tbaa !115
  br label %.critedge

.critedge:                                        ; preds = %19, %26, %14
  %27 = phi i32 [ -5, %14 ], [ 0, %26 ], [ 0, %19 ]
  ret i32 %27
}